target datalayout = "e-m:e-p270:32:32-p271:32:32-p272:64:64-i64:64-i128:128-f80:128-n8:16:32:64-S128"
target triple = "x86_64-unknown-linux-gnu"

%"struct.OpenImageIO_v2_6_0::TypeDesc" = type { i8, i8, i8, i8, i32 }
%class.anon.27 = type { i32, i32, i32, ptr, i64, %"struct.OpenImageIO_v2_6_0::TypeDesc", i64, i64, ptr, i64, %"struct.OpenImageIO_v2_6_0::TypeDesc", i64, i64 }

; Function Attrs: mustprogress nounwind uwtable
define linkonce_odr void @_ZN18OpenImageIO_v2_6_08TypeDescC2ERKS0_(ptr noundef nonnull align 4 dereferenceable(8) %this, ptr noundef nonnull align 4 dereferenceable(8) %t) unnamed_addr #4 comdat align 2 {
entry:
  %this.addr = alloca ptr, align 8
  %t.addr = alloca ptr, align 8
  store ptr %this, ptr %this.addr, align 8
  store ptr %t, ptr %t.addr, align 8
  %this1 = load ptr, ptr %this.addr, align 8
  %basetype = getelementptr inbounds %"struct.OpenImageIO_v2_6_0::TypeDesc", ptr %this1, i32 0, i32 0
  %0 = load ptr, ptr %t.addr, align 8
  %basetype2 = getelementptr inbounds %"struct.OpenImageIO_v2_6_0::TypeDesc", ptr %0, i32 0, i32 0
  %1 = load i8, ptr %basetype2, align 4
  store i8 %1, ptr %basetype, align 4
  %aggregate = getelementptr inbounds %"struct.OpenImageIO_v2_6_0::TypeDesc", ptr %this1, i32 0, i32 1
  %2 = load ptr, ptr %t.addr, align 8
  %aggregate3 = getelementptr inbounds %"struct.OpenImageIO_v2_6_0::TypeDesc", ptr %2, i32 0, i32 1
  %3 = load i8, ptr %aggregate3, align 1
  store i8 %3, ptr %aggregate, align 1
  %vecsemantics = getelementptr inbounds %"struct.OpenImageIO_v2_6_0::TypeDesc", ptr %this1, i32 0, i32 2
  %4 = load ptr, ptr %t.addr, align 8
  %vecsemantics4 = getelementptr inbounds %"struct.OpenImageIO_v2_6_0::TypeDesc", ptr %4, i32 0, i32 2
  %5 = load i8, ptr %vecsemantics4, align 2
  store i8 %5, ptr %vecsemantics, align 2
  %reserved = getelementptr inbounds %"struct.OpenImageIO_v2_6_0::TypeDesc", ptr %this1, i32 0, i32 3
  store i8 0, ptr %reserved, align 1
  %arraylen = getelementptr inbounds %"struct.OpenImageIO_v2_6_0::TypeDesc", ptr %this1, i32 0, i32 4
  %6 = load ptr, ptr %t.addr, align 8
  %arraylen5 = getelementptr inbounds %"struct.OpenImageIO_v2_6_0::TypeDesc", ptr %6, i32 0, i32 4
  %7 = load i32, ptr %arraylen5, align 4
  store i32 %7, ptr %arraylen, align 4
  ret void
}

; Function Attrs: mustprogress uwtable
define internal void @"_ZZN18OpenImageIO_v2_6_022parallel_convert_imageEiiiiPKvNS_8TypeDescElllPvS2_llliENK3$_0clEll"(ptr noundef nonnull align 8 dereferenceable(96) %this, i64 noundef %ybegin, i64 noundef %yend) #6 align 2 {
entry:
  %this.addr = alloca ptr, align 8
  %ybegin.addr = alloca i64, align 8
  %yend.addr = alloca i64, align 8
  %agg.tmp = alloca %"struct.OpenImageIO_v2_6_0::TypeDesc", align 4
  %agg.tmp4 = alloca %"struct.OpenImageIO_v2_6_0::TypeDesc", align 4
  store ptr %this, ptr %this.addr, align 8
  store i64 %ybegin, ptr %ybegin.addr, align 8
  store i64 %yend, ptr %yend.addr, align 8
  %this1 = load ptr, ptr %this.addr, align 8
  %0 = getelementptr inbounds %class.anon.27, ptr %this1, i32 0, i32 0
  %1 = load i32, ptr %0, align 8
  %2 = getelementptr inbounds %class.anon.27, ptr %this1, i32 0, i32 1
  %3 = load i32, ptr %2, align 4
  %4 = load i64, ptr %yend.addr, align 8
  %5 = load i64, ptr %ybegin.addr, align 8
  %sub = sub nsw i64 %4, %5
  %conv = trunc i64 %sub to i32
  %6 = getelementptr inbounds %class.anon.27, ptr %this1, i32 0, i32 2
  %7 = load i32, ptr %6, align 8
  %8 = getelementptr inbounds %class.anon.27, ptr %this1, i32 0, i32 3
  %9 = load ptr, ptr %8, align 8
  %10 = getelementptr inbounds %class.anon.27, ptr %this1, i32 0, i32 4
  %11 = load i64, ptr %10, align 8
  %12 = load i64, ptr %ybegin.addr, align 8
  %mul = mul nsw i64 %11, %12
  %add.ptr = getelementptr inbounds i8, ptr %9, i64 %mul
  %13 = getelementptr inbounds %class.anon.27, ptr %this1, i32 0, i32 5
  call void @_ZN18OpenImageIO_v2_6_08TypeDescC2ERKS0_(ptr noundef nonnull align 4 dereferenceable(8) %agg.tmp, ptr noundef nonnull align 4 dereferenceable(8) %13) #3
  %14 = getelementptr inbounds %class.anon.27, ptr %this1, i32 0, i32 6
  %15 = load i64, ptr %14, align 8
  %16 = getelementptr inbounds %class.anon.27, ptr %this1, i32 0, i32 4
  %17 = load i64, ptr %16, align 8
  %18 = getelementptr inbounds %class.anon.27, ptr %this1, i32 0, i32 7
  %19 = load i64, ptr %18, align 8
  %20 = getelementptr inbounds %class.anon.27, ptr %this1, i32 0, i32 8
  %21 = load ptr, ptr %20, align 8
  %22 = getelementptr inbounds %class.anon.27, ptr %this1, i32 0, i32 9
  %23 = load i64, ptr %22, align 8
  %24 = load i64, ptr %ybegin.addr, align 8
  %mul2 = mul nsw i64 %23, %24
  %add.ptr3 = getelementptr inbounds i8, ptr %21, i64 %mul2
  %25 = getelementptr inbounds %class.anon.27, ptr %this1, i32 0, i32 10
  call void @_ZN18OpenImageIO_v2_6_08TypeDescC2ERKS0_(ptr noundef nonnull align 4 dereferenceable(8) %agg.tmp4, ptr noundef nonnull align 4 dereferenceable(8) %25) #3
  %26 = getelementptr inbounds %class.anon.27, ptr %this1, i32 0, i32 11
  %27 = load i64, ptr %26, align 8
  %28 = getelementptr inbounds %class.anon.27, ptr %this1, i32 0, i32 9
  %29 = load i64, ptr %28, align 8
  %30 = getelementptr inbounds %class.anon.27, ptr %this1, i32 0, i32 12
  %31 = load i64, ptr %30, align 8
  %call = call noundef zeroext i1 @_ZN18OpenImageIO_v2_6_013convert_imageEiiiiPKvNS_8TypeDescElllPvS2_lll(i32 noundef %1, i32 noundef %3, i32 noundef %conv, i32 noundef %7, ptr noundef %add.ptr, ptr noundef %agg.tmp, i64 noundef %15, i64 noundef %17, i64 noundef %19, ptr noundef %add.ptr3, ptr noundef %agg.tmp4, i64 noundef %27, i64 noundef %29, i64 noundef %31)
  ret void
}

; Function Attrs: mustprogress nounwind uwtable
define linkonce_odr noundef ptr @_ZNKSt9_Any_data9_M_accessEv(ptr noundef nonnull align 8 dereferenceable(16) %this) #4 comdat align 2 {
entry:
  %this.addr = alloca ptr, align 8
  store ptr %this, ptr %this.addr, align 8
  %this1 = load ptr, ptr %this.addr, align 8
  %arrayidx = getelementptr inbounds [16 x i8], ptr %this1, i64 0, i64 0
  ret ptr %arrayidx
}

; Function Attrs: mustprogress uwtable
define internal void @"_ZSt13__invoke_implIvRZN18OpenImageIO_v2_6_022parallel_convert_imageEiiiiPKvNS0_8TypeDescElllPvS3_llliE3$_0JllEET_St14__invoke_otherOT0_DpOT1_"(ptr noundef nonnull align 8 dereferenceable(96) %__f, ptr noundef nonnull align 8 dereferenceable(8) %__args, ptr noundef nonnull align 8 dereferenceable(8) %__args1) #6 {
entry:
  %__f.addr = alloca ptr, align 8
  %__args.addr = alloca ptr, align 8
  %__args.addr2 = alloca ptr, align 8
  store ptr %__f, ptr %__f.addr, align 8
  store ptr %__args, ptr %__args.addr, align 8
  store ptr %__args1, ptr %__args.addr2, align 8
  %0 = load ptr, ptr %__f.addr, align 8
  %1 = load ptr, ptr %__args.addr, align 8
  %2 = load i64, ptr %1, align 8
  %3 = load ptr, ptr %__args.addr2, align 8
  %4 = load i64, ptr %3, align 8
  call void @"_ZZN18OpenImageIO_v2_6_022parallel_convert_imageEiiiiPKvNS_8TypeDescElllPvS2_llliENK3$_0clEll"(ptr noundef nonnull align 8 dereferenceable(96) %0, i64 noundef %2, i64 noundef %4)
  ret void
}

; Function Attrs: mustprogress nounwind uwtable
define internal noundef nonnull align 8 dereferenceable(8) ptr @"_ZNKSt9_Any_data9_M_accessIPZN18OpenImageIO_v2_6_022parallel_convert_imageEiiiiPKvNS1_8TypeDescElllPvS4_llliE3$_0EERKT_v"(ptr noundef nonnull align 8 dereferenceable(16) %this) #4 align 2 {
entry:
  %this.addr = alloca ptr, align 8
  store ptr %this, ptr %this.addr, align 8
  %this1 = load ptr, ptr %this.addr, align 8
  %call = call noundef ptr @_ZNKSt9_Any_data9_M_accessEv(ptr noundef nonnull align 8 dereferenceable(16) %this1) #3
  ret ptr %call
}

; Function Attrs: mustprogress uwtable
define internal void @"_ZSt10__invoke_rIvRZN18OpenImageIO_v2_6_022parallel_convert_imageEiiiiPKvNS0_8TypeDescElllPvS3_llliE3$_0JllEENSt9enable_ifIX16is_invocable_r_vIT_T0_DpT1_EES8_E4typeEOS9_DpOSA_"(ptr noundef nonnull align 8 dereferenceable(96) %__fn, ptr noundef nonnull align 8 dereferenceable(8) %__args, ptr noundef nonnull align 8 dereferenceable(8) %__args1) #6 {
entry:
  %__fn.addr = alloca ptr, align 8
  %__args.addr = alloca ptr, align 8
  %__args.addr2 = alloca ptr, align 8
  store ptr %__fn, ptr %__fn.addr, align 8
  store ptr %__args, ptr %__args.addr, align 8
  store ptr %__args1, ptr %__args.addr2, align 8
  %0 = load ptr, ptr %__fn.addr, align 8
  %1 = load ptr, ptr %__args.addr, align 8
  %2 = load ptr, ptr %__args.addr2, align 8
  call void @"_ZSt13__invoke_implIvRZN18OpenImageIO_v2_6_022parallel_convert_imageEiiiiPKvNS0_8TypeDescElllPvS3_llliE3$_0JllEET_St14__invoke_otherOT0_DpOT1_"(ptr noundef nonnull align 8 dereferenceable(96) %0, ptr noundef nonnull align 8 dereferenceable(8) %1, ptr noundef nonnull align 8 dereferenceable(8) %2)
  ret void
}

; Function Attrs: mustprogress nounwind uwtable
define internal noundef ptr @"_ZNSt14_Function_base13_Base_managerIZN18OpenImageIO_v2_6_022parallel_convert_imageEiiiiPKvNS1_8TypeDescElllPvS4_llliE3$_0E14_M_get_pointerERKSt9_Any_data"(ptr noundef nonnull align 8 dereferenceable(16) %__source) #4 align 2 {
entry:
  %__source.addr = alloca ptr, align 8
  store ptr %__source, ptr %__source.addr, align 8
  %0 = load ptr, ptr %__source.addr, align 8
  %call = call noundef nonnull align 8 dereferenceable(8) ptr @"_ZNKSt9_Any_data9_M_accessIPZN18OpenImageIO_v2_6_022parallel_convert_imageEiiiiPKvNS1_8TypeDescElllPvS4_llliE3$_0EERKT_v"(ptr noundef nonnull align 8 dereferenceable(16) %0) #3
  %1 = load ptr, ptr %call, align 8
  ret ptr %1
}

; Function Attrs: mustprogress uwtable
define internal void @"_ZNSt17_Function_handlerIFvllEZN18OpenImageIO_v2_6_022parallel_convert_imageEiiiiPKvNS1_8TypeDescElllPvS4_llliE3$_0E9_M_invokeERKSt9_Any_dataOlSB_"(ptr noundef nonnull align 8 dereferenceable(16) %__functor, ptr noundef nonnull align 8 dereferenceable(8) %__args, ptr noundef nonnull align 8 dereferenceable(8) %__args1) #6 align 2 {
entry:
  %__functor.addr = alloca ptr, align 8
  %__args.addr = alloca ptr, align 8
  %__args.addr2 = alloca ptr, align 8
  store ptr %__functor, ptr %__functor.addr, align 8
  store ptr %__args, ptr %__args.addr, align 8
  store ptr %__args1, ptr %__args.addr2, align 8
  %0 = load ptr, ptr %__functor.addr, align 8
  %call = call noundef ptr @"_ZNSt14_Function_base13_Base_managerIZN18OpenImageIO_v2_6_022parallel_convert_imageEiiiiPKvNS1_8TypeDescElllPvS4_llliE3$_0E14_M_get_pointerERKSt9_Any_data"(ptr noundef nonnull align 8 dereferenceable(16) %0) #3
  %1 = load ptr, ptr %__args.addr, align 8
  %2 = load ptr, ptr %__args.addr2, align 8
  call void @"_ZSt10__invoke_rIvRZN18OpenImageIO_v2_6_022parallel_convert_imageEiiiiPKvNS0_8TypeDescElllPvS3_llliE3$_0JllEENSt9enable_ifIX16is_invocable_r_vIT_T0_DpT1_EES8_E4typeEOS9_DpOSA_"(ptr noundef nonnull align 8 dereferenceable(96) %call, ptr noundef nonnull align 8 dereferenceable(8) %1, ptr noundef nonnull align 8 dereferenceable(8) %2)
  ret void
}