; Function Attrs: mustprogress uwtable
define internal void @"_ZNSt17_Function_handlerIFvllEZN18OpenImageIO_v2_6_022parallel_convert_imageEiiiiPKvNS1_8TypeDescElllPvS4_llliE3$_0E9_M_invokeERKSt9_Any_dataOlSB_"(ptr nocapture noundef nonnull readonly align 8 dereferenceable(16) %__functor, ptr nocapture noundef nonnull readonly align 8 dereferenceable(8) %__args, ptr nocapture noundef nonnull readonly align 8 dereferenceable(8) %__args1) #5 align 2 {
entry:
  %agg.tmp.i.i.i = alloca %"struct.OpenImageIO_v2_6_0::TypeDesc", align 4
  %agg.tmp4.i.i.i = alloca %"struct.OpenImageIO_v2_6_0::TypeDesc", align 4
  %__functor.val = load ptr, ptr %__functor, align 8
  %__args.val = load i64, ptr %__args, align 8
  %__args1.val = load i64, ptr %__args1, align 8
  call void @llvm.lifetime.start.p0(i64 8, ptr nonnull %agg.tmp.i.i.i)
  call void @llvm.lifetime.start.p0(i64 8, ptr nonnull %agg.tmp4.i.i.i)
  %0 = load i32, ptr %__functor.val, align 8
  %1 = getelementptr inbounds i8, ptr %__functor.val, i64 4
  %2 = load i32, ptr %1, align 4
  %sub.i.i.i = sub nsw i64 %__args1.val, %__args.val
  %conv.i.i.i = trunc i64 %sub.i.i.i to i32
  %3 = getelementptr inbounds i8, ptr %__functor.val, i64 8
  %4 = load i32, ptr %3, align 8
  %5 = getelementptr inbounds i8, ptr %__functor.val, i64 16
  %6 = load ptr, ptr %5, align 8
  %7 = getelementptr inbounds i8, ptr %__functor.val, i64 24
  %8 = load i64, ptr %7, align 8
  %mul.i.i.i = mul nsw i64 %8, %__args.val
  %add.ptr.i.i.i = getelementptr inbounds i8, ptr %6, i64 %mul.i.i.i
  %9 = getelementptr inbounds i8, ptr %__functor.val, i64 32
  %10 = load i8, ptr %9, align 4
  store i8 %10, ptr %agg.tmp.i.i.i, align 4
  %aggregate.i.i.i.i = getelementptr inbounds i8, ptr %agg.tmp.i.i.i, i64 1
  %aggregate3.i.i.i.i = getelementptr inbounds i8, ptr %__functor.val, i64 33
  %11 = load i8, ptr %aggregate3.i.i.i.i, align 1
  store i8 %11, ptr %aggregate.i.i.i.i, align 1
  %vecsemantics.i.i.i.i = getelementptr inbounds i8, ptr %agg.tmp.i.i.i, i64 2
  %vecsemantics4.i.i.i.i = getelementptr inbounds i8, ptr %__functor.val, i64 34
  %12 = load i8, ptr %vecsemantics4.i.i.i.i, align 2
  store i8 %12, ptr %vecsemantics.i.i.i.i, align 2
  %reserved.i.i.i.i = getelementptr inbounds i8, ptr %agg.tmp.i.i.i, i64 3
  store i8 0, ptr %reserved.i.i.i.i, align 1
  %arraylen.i.i.i.i = getelementptr inbounds i8, ptr %agg.tmp.i.i.i, i64 4
  %arraylen5.i.i.i.i = getelementptr inbounds i8, ptr %__functor.val, i64 36
  %13 = load i32, ptr %arraylen5.i.i.i.i, align 4
  store i32 %13, ptr %arraylen.i.i.i.i, align 4
  %14 = getelementptr inbounds i8, ptr %__functor.val, i64 40
  %15 = load i64, ptr %14, align 8
  %16 = getelementptr inbounds i8, ptr %__functor.val, i64 48
  %17 = load i64, ptr %16, align 8
  %18 = getelementptr inbounds i8, ptr %__functor.val, i64 56
  %19 = load ptr, ptr %18, align 8
  %20 = getelementptr inbounds i8, ptr %__functor.val, i64 64
  %21 = load i64, ptr %20, align 8
  %mul2.i.i.i = mul nsw i64 %21, %__args.val
  %add.ptr3.i.i.i = getelementptr inbounds i8, ptr %19, i64 %mul2.i.i.i
  %22 = getelementptr inbounds i8, ptr %__functor.val, i64 72
  %23 = load i8, ptr %22, align 4
  store i8 %23, ptr %agg.tmp4.i.i.i, align 4
  %aggregate.i3.i.i.i = getelementptr inbounds i8, ptr %agg.tmp4.i.i.i, i64 1
  %aggregate3.i4.i.i.i = getelementptr inbounds i8, ptr %__functor.val, i64 73
  %24 = load i8, ptr %aggregate3.i4.i.i.i, align 1
  store i8 %24, ptr %aggregate.i3.i.i.i, align 1
  %vecsemantics.i5.i.i.i = getelementptr inbounds i8, ptr %agg.tmp4.i.i.i, i64 2
  %vecsemantics4.i6.i.i.i = getelementptr inbounds i8, ptr %__functor.val, i64 74
  %25 = load i8, ptr %vecsemantics4.i6.i.i.i, align 2
  store i8 %25, ptr %vecsemantics.i5.i.i.i, align 2
  %reserved.i7.i.i.i = getelementptr inbounds i8, ptr %agg.tmp4.i.i.i, i64 3
  store i8 0, ptr %reserved.i7.i.i.i, align 1
  %arraylen.i8.i.i.i = getelementptr inbounds i8, ptr %agg.tmp4.i.i.i, i64 4
  %arraylen5.i9.i.i.i = getelementptr inbounds i8, ptr %__functor.val, i64 76
  %26 = load i32, ptr %arraylen5.i9.i.i.i, align 4
  store i32 %26, ptr %arraylen.i8.i.i.i, align 4
  %27 = getelementptr inbounds i8, ptr %__functor.val, i64 80
  %28 = load i64, ptr %27, align 8
  %29 = getelementptr inbounds i8, ptr %__functor.val, i64 88
  %30 = load i64, ptr %29, align 8
  %call.i.i.i = call noundef zeroext i1 @_ZN18OpenImageIO_v2_6_013convert_imageEiiiiPKvNS_8TypeDescElllPvS2_lll(i32 noundef %0, i32 noundef %2, i32 noundef %conv.i.i.i, i32 noundef %4, ptr noundef %add.ptr.i.i.i, ptr noundef nonnull %agg.tmp.i.i.i, i64 noundef %15, i64 noundef %8, i64 noundef %17, ptr noundef %add.ptr3.i.i.i, ptr noundef nonnull %agg.tmp4.i.i.i, i64 noundef %28, i64 noundef %21, i64 noundef %30)
  call void @llvm.lifetime.end.p0(i64 8, ptr nonnull %agg.tmp.i.i.i)
  call void @llvm.lifetime.end.p0(i64 8, ptr nonnull %agg.tmp4.i.i.i)
  ret void
}